target datalayout = "e-m:e-p270:32:32-p271:32:32-p272:64:64-i64:64-i128:128-f80:128-n8:16:32:64-S128"
target triple = "x86_64-pc-linux-gnu"

@zueci_cp1252_s = internal constant [6 x i16] [i16 -1, i16 -1, i16 -1, i16 -1, i16 -1, i16 -1], align 2
@zueci_cp1252_u_sb = internal constant [27 x i8] c"\8C\9C\8A\9A\9F\8E\9E\83\88\98\96\97\91\92\82\93\94\84\86\87\95\85\89\8B\9B\80\99", align 16

; Function Attrs: nounwind uwtable
define internal i32 @zueci_u_cp125x(i32 noundef %0, ptr noundef %1, ptr noundef %2, ptr noundef %3, i32 noundef %4, ptr noundef %5) #0 {
  %7 = alloca i32, align 4
  %8 = alloca i32, align 4
  %9 = alloca ptr, align 8
  %10 = alloca ptr, align 8
  %11 = alloca ptr, align 8
  %12 = alloca i32, align 4
  %13 = alloca ptr, align 8
  %14 = alloca i32, align 4
  %15 = alloca i32, align 4
  %16 = alloca i32, align 4
  store i32 %0, ptr %8, align 4
  store ptr %1, ptr %9, align 8
  store ptr %2, ptr %10, align 8
  store ptr %3, ptr %11, align 8
  store i32 %4, ptr %12, align 4
  store ptr %5, ptr %13, align 8
  %17 = load i32, ptr %8, align 4
  %18 = icmp ult i32 %17, 128
  br i1 %18, label %19, label %23

19:                                               ; preds = %6
  %20 = load i32, ptr %8, align 4
  %21 = trunc i32 %20 to i8
  %22 = load ptr, ptr %13, align 8
  store i8 %21, ptr %22, align 1
  store i32 1, ptr %7, align 4
  br label %92

23:                                               ; preds = %6
  %24 = load i32, ptr %8, align 4
  %25 = icmp ule i32 %24, 255
  br i1 %25, label %26, label %49

26:                                               ; preds = %23
  %27 = load i32, ptr %8, align 4
  %28 = icmp uge i32 %27, 160
  br i1 %28, label %29, label %49

29:                                               ; preds = %26
  %30 = load i32, ptr %8, align 4
  %31 = sub i32 %30, 160
  store i32 %31, ptr %15, align 4
  %32 = load ptr, ptr %9, align 8
  %33 = load i32, ptr %15, align 4
  %34 = lshr i32 %33, 4
  %35 = zext i32 %34 to i64
  %36 = getelementptr inbounds i16, ptr %32, i64 %35
  %37 = load i16, ptr %36, align 2
  %38 = zext i16 %37 to i32
  %39 = load i32, ptr %15, align 4
  %40 = and i32 %39, 15
  %41 = shl i32 1, %40
  %42 = and i32 %38, %41
  %43 = icmp ne i32 %42, 0
  br i1 %43, label %44, label %48

44:                                               ; preds = %29
  %45 = load i32, ptr %8, align 4
  %46 = trunc i32 %45 to i8
  %47 = load ptr, ptr %13, align 8
  store i8 %46, ptr %47, align 1
  store i32 1, ptr %7, align 4
  br label %92

48:                                               ; preds = %29
  br label %49

49:                                               ; preds = %48, %26, %23
  store i32 0, ptr %14, align 4
  br label %50

50:                                               ; preds = %90, %49
  %51 = load i32, ptr %14, align 4
  %52 = load i32, ptr %12, align 4
  %53 = icmp sle i32 %51, %52
  br i1 %53, label %54, label %91

54:                                               ; preds = %50
  %55 = load i32, ptr %14, align 4
  %56 = load i32, ptr %12, align 4
  %57 = add nsw i32 %55, %56
  %58 = ashr i32 %57, 1
  store i32 %58, ptr %16, align 4
  %59 = load ptr, ptr %10, align 8
  %60 = load i32, ptr %16, align 4
  %61 = sext i32 %60 to i64
  %62 = getelementptr inbounds i16, ptr %59, i64 %61
  %63 = load i16, ptr %62, align 2
  %64 = zext i16 %63 to i32
  %65 = load i32, ptr %8, align 4
  %66 = icmp ult i32 %64, %65
  br i1 %66, label %67, label %70

67:                                               ; preds = %54
  %68 = load i32, ptr %16, align 4
  %69 = add nsw i32 %68, 1
  store i32 %69, ptr %14, align 4
  br label %90

70:                                               ; preds = %54
  %71 = load ptr, ptr %10, align 8
  %72 = load i32, ptr %16, align 4
  %73 = sext i32 %72 to i64
  %74 = getelementptr inbounds i16, ptr %71, i64 %73
  %75 = load i16, ptr %74, align 2
  %76 = zext i16 %75 to i32
  %77 = load i32, ptr %8, align 4
  %78 = icmp ugt i32 %76, %77
  br i1 %78, label %79, label %82

79:                                               ; preds = %70
  %80 = load i32, ptr %16, align 4
  %81 = sub nsw i32 %80, 1
  store i32 %81, ptr %12, align 4
  br label %89

82:                                               ; preds = %70
  %83 = load ptr, ptr %11, align 8
  %84 = load i32, ptr %16, align 4
  %85 = sext i32 %84 to i64
  %86 = getelementptr inbounds i8, ptr %83, i64 %85
  %87 = load i8, ptr %86, align 1
  %88 = load ptr, ptr %13, align 8
  store i8 %87, ptr %88, align 1
  store i32 1, ptr %7, align 4
  br label %92

89:                                               ; preds = %79
  br label %90

90:                                               ; preds = %89, %67
  br label %50, !llvm.loop !33

91:                                               ; preds = %50
  store i32 0, ptr %7, align 4
  br label %92

92:                                               ; preds = %91, %82, %44, %19
  %93 = load i32, ptr %7, align 4
  ret i32 %93
}

; Function Attrs: nounwind uwtable
define internal i32 @zueci_u_cp1252(i32 noundef %0, ptr noundef %1) #0 {
  %3 = alloca i32, align 4
  %4 = alloca ptr, align 8
  store i32 %0, ptr %3, align 4
  store ptr %1, ptr %4, align 8
  %5 = load i32, ptr %3, align 4
  %6 = load ptr, ptr %4, align 8
  %7 = call i32 @zueci_u_cp125x(i32 noundef %5, ptr noundef @zueci_cp1252_s, ptr noundef @zueci_cp1252_u_u, ptr noundef @zueci_cp1252_u_sb, i32 noundef 26, ptr noundef %6)
  ret i32 %7
}