; Function Attrs: nofree norecurse nosync nounwind memory(argmem: write) uwtable
define internal noundef i32 @zueci_u_cp1252(i32 noundef %0, ptr nocapture noundef writeonly %1) #1 {
  %3 = icmp ult i32 %0, 128
  br i1 %3, label %4, label %6

4:                                                ; preds = %2
  %5 = trunc nuw nsw i32 %0 to i8
  br label %.loopexit.sink.split.i

6:                                                ; preds = %2
  %7 = add i32 %0, -160
  %or.cond.i = icmp ult i32 %7, 96
  br i1 %or.cond.i, label %8, label %.lr.ph.i

8:                                                ; preds = %6
  %9 = trunc nuw i32 %0 to i8
  br label %.loopexit.sink.split.i

.lr.ph.i:                                         ; preds = %6, %26
  %.02736.i = phi i32 [ %.1.i, %26 ], [ 26, %6 ]
  %.02835.i = phi i32 [ %.129.i, %26 ], [ 0, %6 ]
  %10 = add nsw i32 %.02835.i, %.02736.i
  %11 = ashr i32 %10, 1
  %12 = sext i32 %11 to i64
  %13 = getelementptr inbounds i16, ptr @zueci_cp1252_u_u, i64 %12
  %14 = load i16, ptr %13, align 2
  %15 = zext i16 %14 to i32
  %16 = icmp ult i32 %15, %0
  br i1 %16, label %17, label %19

17:                                               ; preds = %.lr.ph.i
  %18 = add nsw i32 %11, 1
  br label %26

19:                                               ; preds = %.lr.ph.i
  %20 = icmp ugt i32 %15, %0
  br i1 %20, label %21, label %23

21:                                               ; preds = %19
  %22 = add nsw i32 %11, -1
  br label %26

23:                                               ; preds = %19
  %24 = getelementptr inbounds i8, ptr @zueci_cp1252_u_sb, i64 %12
  %25 = load i8, ptr %24, align 1
  br label %.loopexit.sink.split.i

26:                                               ; preds = %21, %17
  %.129.i = phi i32 [ %18, %17 ], [ %.02835.i, %21 ]
  %.1.i = phi i32 [ %.02736.i, %17 ], [ %22, %21 ]
  %.not33.i = icmp sgt i32 %.129.i, %.1.i
  br i1 %.not33.i, label %zueci_u_cp125x.exit, label %.lr.ph.i, !llvm.loop !11

.loopexit.sink.split.i:                           ; preds = %23, %8, %4
  %.sink.i = phi i8 [ %25, %23 ], [ %9, %8 ], [ %5, %4 ]
  store i8 %.sink.i, ptr %1, align 1
  br label %zueci_u_cp125x.exit

zueci_u_cp125x.exit:                              ; preds = %26, %.loopexit.sink.split.i
  %.0.i = phi i32 [ 1, %.loopexit.sink.split.i ], [ 0, %26 ]
  ret i32 %.0.i
}